; Function Attrs: nounwind uwtable
define internal void @wait_cbfunc(ptr readnone captures(none) %0, ptr readnone captures(none) %1, ptr readnone captures(none) %2, ptr noundef %3) #1 {
  fence acquire
  %5 = load i32, ptr getelementptr inbounds nuw (i8, ptr @pmix_client_globals, i64 776), align 8, !tbaa !70
  %or.cond = icmp ult i32 %5, 64
  br i1 %or.cond, label %6, label %12

6:                                                ; preds = %4
  %7 = zext nneg i32 %5 to i64
  %8 = getelementptr inbounds nuw [0 x %struct.pmix_output_desc_t], ptr @pmix_output_info, i64 0, i64 %7, i32 2
  %9 = load i32, ptr %8, align 4, !tbaa !89
  %10 = icmp sgt i32 %9, 1
  br i1 %10, label %11, label %12

11:                                               ; preds = %6
  tail call void (i32, ptr, ...) @pmix_output(i32 noundef %5, ptr noundef nonnull @.str.65) #18
  br label %12

12:                                               ; preds = %11, %6, %4
  fence release
  %13 = getelementptr inbounds nuw i8, ptr %3, i64 128
  %14 = tail call i32 @pthread_mutex_lock(ptr noundef nonnull %13) #18
  %15 = getelementptr inbounds nuw i8, ptr %3, i64 216
  store volatile i8 0, ptr %15, align 8, !tbaa !9
  fence release
  %16 = getelementptr inbounds nuw i8, ptr %3, i64 168
  %17 = tail call i32 @pthread_cond_broadcast(ptr noundef nonnull %16) #18
  %18 = tail call i32 @pthread_mutex_unlock(ptr noundef nonnull %13) #18
  ret void
}